target datalayout = "e-m:e-p270:32:32-p271:32:32-p272:64:64-i64:64-i128:128-f80:128-n8:16:32:64-S128"
target triple = "x86_64-unknown-linux-gnu"

%struct.HashMap = type { ptr, i32, i32 }
%struct.Scope = type { ptr, %struct.HashMap, %struct.HashMap }
%struct.Token = type { i32, ptr, i64, x86_fp80, ptr, i32, ptr, ptr, ptr, ptr, i32, i32, i8, i8, ptr, ptr }
%struct.Type = type { i32, i32, i32, i8, i8, ptr, ptr, ptr, ptr, i32, ptr, ptr, ptr, i8, i8, ptr, ptr, i8, ptr }
%struct.VarScope = type { ptr, ptr, ptr, i32 }

@.str.25 = private unnamed_addr constant [2 x i8] c"{\00", align 1
@scope = internal global ptr @.compoundliteral, align 8
@.str.57 = private unnamed_addr constant [2 x i8] c",\00", align 1
@.str.66 = private unnamed_addr constant [23 x i8] c"expected an identifier\00", align 1
@.str.69 = private unnamed_addr constant [2 x i8] c"}\00", align 1
@.str.76 = private unnamed_addr constant [2 x i8] c"=\00", align 1
@.str.139 = private unnamed_addr constant [18 x i8] c"unknown enum type\00", align 1
@.str.140 = private unnamed_addr constant [16 x i8] c"not an enum tag\00", align 1

; Function Attrs: nounwind uwtable
define internal i64 @eval(ptr noundef %node) #0 {
entry:
  %node.addr = alloca ptr, align 8
  store ptr %node, ptr %node.addr, align 8
  %0 = load ptr, ptr %node.addr, align 8
  %call = call i64 @eval2(ptr noundef %0, ptr noundef null)
  ret i64 %call
}

; Function Attrs: nounwind uwtable
define internal void @push_tag_scope(ptr noundef %tok, ptr noundef %ty) #0 {
entry:
  %tok.addr = alloca ptr, align 8
  %ty.addr = alloca ptr, align 8
  store ptr %tok, ptr %tok.addr, align 8
  store ptr %ty, ptr %ty.addr, align 8
  %0 = load ptr, ptr @scope, align 8
  %tags = getelementptr inbounds %struct.Scope, ptr %0, i32 0, i32 2
  %1 = load ptr, ptr %tok.addr, align 8
  %loc = getelementptr inbounds %struct.Token, ptr %1, i32 0, i32 4
  %2 = load ptr, ptr %loc, align 16
  %3 = load ptr, ptr %tok.addr, align 8
  %len = getelementptr inbounds %struct.Token, ptr %3, i32 0, i32 5
  %4 = load i32, ptr %len, align 8
  %5 = load ptr, ptr %ty.addr, align 8
  call void @hashmap_put2(ptr noundef %tags, ptr noundef %2, i32 noundef %4, ptr noundef %5)
  ret void
}

; Function Attrs: nounwind uwtable
define internal ptr @push_scope(ptr noundef %name) #0 {
entry:
  %name.addr = alloca ptr, align 8
  %sc = alloca ptr, align 8
  store ptr %name, ptr %name.addr, align 8
  %call = call noalias ptr @calloc(i64 noundef 1, i64 noundef 32) #8
  store ptr %call, ptr %sc, align 8
  %0 = load ptr, ptr @scope, align 8
  %vars = getelementptr inbounds %struct.Scope, ptr %0, i32 0, i32 1
  %1 = load ptr, ptr %name.addr, align 8
  %2 = load ptr, ptr %sc, align 8
  call void @hashmap_put(ptr noundef %vars, ptr noundef %1, ptr noundef %2)
  %3 = load ptr, ptr %sc, align 8
  ret ptr %3
}

; Function Attrs: nounwind uwtable
define dso_local i64 @const_expr(ptr noundef %rest, ptr noundef %tok) #0 {
entry:
  %rest.addr = alloca ptr, align 8
  %tok.addr = alloca ptr, align 8
  %node = alloca ptr, align 8
  store ptr %rest, ptr %rest.addr, align 8
  store ptr %tok, ptr %tok.addr, align 8
  %0 = load ptr, ptr %rest.addr, align 8
  %1 = load ptr, ptr %tok.addr, align 8
  %call = call ptr @conditional(ptr noundef %0, ptr noundef %1)
  store ptr %call, ptr %node, align 8
  %2 = load ptr, ptr %node, align 8
  %call1 = call i64 @eval(ptr noundef %2)
  ret i64 %call1
}

; Function Attrs: nounwind uwtable
define internal ptr @get_ident(ptr noundef %tok) #0 {
entry:
  %tok.addr = alloca ptr, align 8
  store ptr %tok, ptr %tok.addr, align 8
  %0 = load ptr, ptr %tok.addr, align 8
  %kind = getelementptr inbounds %struct.Token, ptr %0, i32 0, i32 0
  %1 = load i32, ptr %kind, align 16
  %cmp = icmp ne i32 %1, 0
  br i1 %cmp, label %if.then, label %if.end

if.then:                                          ; preds = %entry
  %2 = load ptr, ptr %tok.addr, align 8
  call void (ptr, ptr, ...) @error_tok(ptr noundef %2, ptr noundef @.str.66) #9
  unreachable

if.end:                                           ; preds = %entry
  %3 = load ptr, ptr %tok.addr, align 8
  %loc = getelementptr inbounds %struct.Token, ptr %3, i32 0, i32 4
  %4 = load ptr, ptr %loc, align 16
  %5 = load ptr, ptr %tok.addr, align 8
  %len = getelementptr inbounds %struct.Token, ptr %5, i32 0, i32 5
  %6 = load i32, ptr %len, align 8
  %conv = sext i32 %6 to i64
  %call = call noalias ptr @strndup(ptr noundef %4, i64 noundef %conv) #11
  ret ptr %call
}

; Function Attrs: nounwind uwtable
define internal zeroext i1 @consume_end(ptr noundef %rest, ptr noundef %tok) #0 {
entry:
  %retval = alloca i1, align 1
  %rest.addr = alloca ptr, align 8
  %tok.addr = alloca ptr, align 8
  store ptr %rest, ptr %rest.addr, align 8
  store ptr %tok, ptr %tok.addr, align 8
  %0 = load ptr, ptr %tok.addr, align 8
  %call = call zeroext i1 @equal(ptr noundef %0, ptr noundef @.str.69)
  br i1 %call, label %if.then, label %if.end

if.then:                                          ; preds = %entry
  %1 = load ptr, ptr %tok.addr, align 8
  %next = getelementptr inbounds %struct.Token, ptr %1, i32 0, i32 1
  %2 = load ptr, ptr %next, align 8
  %3 = load ptr, ptr %rest.addr, align 8
  store ptr %2, ptr %3, align 8
  store i1 true, ptr %retval, align 1
  br label %return

if.end:                                           ; preds = %entry
  %4 = load ptr, ptr %tok.addr, align 8
  %call1 = call zeroext i1 @equal(ptr noundef %4, ptr noundef @.str.57)
  br i1 %call1, label %land.lhs.true, label %if.end7

land.lhs.true:                                    ; preds = %if.end
  %5 = load ptr, ptr %tok.addr, align 8
  %next2 = getelementptr inbounds %struct.Token, ptr %5, i32 0, i32 1
  %6 = load ptr, ptr %next2, align 8
  %call3 = call zeroext i1 @equal(ptr noundef %6, ptr noundef @.str.69)
  br i1 %call3, label %if.then4, label %if.end7

if.then4:                                         ; preds = %land.lhs.true
  %7 = load ptr, ptr %tok.addr, align 8
  %next5 = getelementptr inbounds %struct.Token, ptr %7, i32 0, i32 1
  %8 = load ptr, ptr %next5, align 8
  %next6 = getelementptr inbounds %struct.Token, ptr %8, i32 0, i32 1
  %9 = load ptr, ptr %next6, align 8
  %10 = load ptr, ptr %rest.addr, align 8
  store ptr %9, ptr %10, align 8
  store i1 true, ptr %retval, align 1
  br label %return

if.end7:                                          ; preds = %land.lhs.true, %if.end
  store i1 false, ptr %retval, align 1
  br label %return

return:                                           ; preds = %if.end7, %if.then4, %if.then
  %11 = load i1, ptr %retval, align 1
  ret i1 %11
}

; Function Attrs: nounwind uwtable
define internal ptr @find_tag(ptr noundef %tok) #0 {
entry:
  %retval = alloca ptr, align 8
  %tok.addr = alloca ptr, align 8
  %sc = alloca ptr, align 8
  %ty = alloca ptr, align 8
  store ptr %tok, ptr %tok.addr, align 8
  %0 = load ptr, ptr @scope, align 8
  store ptr %0, ptr %sc, align 8
  br label %for.cond

for.cond:                                         ; preds = %for.inc, %entry
  %1 = load ptr, ptr %sc, align 8
  %tobool = icmp ne ptr %1, null
  br i1 %tobool, label %for.body, label %for.end

for.body:                                         ; preds = %for.cond
  %2 = load ptr, ptr %sc, align 8
  %tags = getelementptr inbounds %struct.Scope, ptr %2, i32 0, i32 2
  %3 = load ptr, ptr %tok.addr, align 8
  %loc = getelementptr inbounds %struct.Token, ptr %3, i32 0, i32 4
  %4 = load ptr, ptr %loc, align 16
  %5 = load ptr, ptr %tok.addr, align 8
  %len = getelementptr inbounds %struct.Token, ptr %5, i32 0, i32 5
  %6 = load i32, ptr %len, align 8
  %call = call ptr @hashmap_get2(ptr noundef %tags, ptr noundef %4, i32 noundef %6)
  store ptr %call, ptr %ty, align 8
  %7 = load ptr, ptr %ty, align 8
  %tobool1 = icmp ne ptr %7, null
  br i1 %tobool1, label %if.then, label %if.end

if.then:                                          ; preds = %for.body
  %8 = load ptr, ptr %ty, align 8
  store ptr %8, ptr %retval, align 8
  br label %return

if.end:                                           ; preds = %for.body
  br label %for.inc

for.inc:                                          ; preds = %if.end
  %9 = load ptr, ptr %sc, align 8
  %next = getelementptr inbounds %struct.Scope, ptr %9, i32 0, i32 0
  %10 = load ptr, ptr %next, align 8
  store ptr %10, ptr %sc, align 8
  br label %for.cond, !llvm.loop !58

for.end:                                          ; preds = %for.cond
  store ptr null, ptr %retval, align 8
  br label %return

return:                                           ; preds = %for.end, %if.then
  %11 = load ptr, ptr %retval, align 8
  ret ptr %11
}

; Function Attrs: nounwind uwtable
define internal ptr @enum_specifier(ptr noundef %rest, ptr noundef %tok) #0 {
entry:
  %retval = alloca ptr, align 8
  %rest.addr = alloca ptr, align 8
  %tok.addr = alloca ptr, align 8
  %ty = alloca ptr, align 8
  %tag = alloca ptr, align 8
  %ty3 = alloca ptr, align 8
  %i = alloca i32, align 4
  %val = alloca i32, align 4
  %name = alloca ptr, align 8
  %sc = alloca ptr, align 8
  store ptr %rest, ptr %rest.addr, align 8
  store ptr %tok, ptr %tok.addr, align 8
  %call = call ptr @enum_type()
  store ptr %call, ptr %ty, align 8
  store ptr null, ptr %tag, align 8
  %0 = load ptr, ptr %tok.addr, align 8
  %kind = getelementptr inbounds %struct.Token, ptr %0, i32 0, i32 0
  %1 = load i32, ptr %kind, align 16
  %cmp = icmp eq i32 %1, 0
  br i1 %cmp, label %if.then, label %if.end

if.then:                                          ; preds = %entry
  %2 = load ptr, ptr %tok.addr, align 8
  store ptr %2, ptr %tag, align 8
  %3 = load ptr, ptr %tok.addr, align 8
  %next = getelementptr inbounds %struct.Token, ptr %3, i32 0, i32 1
  %4 = load ptr, ptr %next, align 8
  store ptr %4, ptr %tok.addr, align 8
  br label %if.end

if.end:                                           ; preds = %if.then, %entry
  %5 = load ptr, ptr %tag, align 8
  %tobool = icmp ne ptr %5, null
  br i1 %tobool, label %land.lhs.true, label %if.end12

land.lhs.true:                                    ; preds = %if.end
  %6 = load ptr, ptr %tok.addr, align 8
  %call1 = call zeroext i1 @equal(ptr noundef %6, ptr noundef @.str.25)
  br i1 %call1, label %if.end12, label %if.then2

if.then2:                                         ; preds = %land.lhs.true
  %7 = load ptr, ptr %tag, align 8
  %call4 = call ptr @find_tag(ptr noundef %7)
  store ptr %call4, ptr %ty3, align 8
  %8 = load ptr, ptr %ty3, align 8
  %tobool5 = icmp ne ptr %8, null
  br i1 %tobool5, label %if.end7, label %if.then6

if.then6:                                         ; preds = %if.then2
  %9 = load ptr, ptr %tag, align 8
  call void (ptr, ptr, ...) @error_tok(ptr noundef %9, ptr noundef @.str.139) #9
  unreachable

if.end7:                                          ; preds = %if.then2
  %10 = load ptr, ptr %ty3, align 8
  %kind8 = getelementptr inbounds %struct.Type, ptr %10, i32 0, i32 0
  %11 = load i32, ptr %kind8, align 8
  %cmp9 = icmp ne i32 %11, 9
  br i1 %cmp9, label %if.then10, label %if.end11

if.then10:                                        ; preds = %if.end7
  %12 = load ptr, ptr %tag, align 8
  call void (ptr, ptr, ...) @error_tok(ptr noundef %12, ptr noundef @.str.140) #9
  unreachable

if.end11:                                         ; preds = %if.end7
  %13 = load ptr, ptr %tok.addr, align 8
  %14 = load ptr, ptr %rest.addr, align 8
  store ptr %13, ptr %14, align 8
  %15 = load ptr, ptr %ty3, align 8
  store ptr %15, ptr %retval, align 8
  br label %return

if.end12:                                         ; preds = %land.lhs.true, %if.end
  %16 = load ptr, ptr %tok.addr, align 8
  %call13 = call ptr @skip(ptr noundef %16, ptr noundef @.str.25)
  store ptr %call13, ptr %tok.addr, align 8
  store i32 0, ptr %i, align 4
  store i32 0, ptr %val, align 4
  br label %while.cond

while.cond:                                       ; preds = %if.end25, %if.end12
  %17 = load ptr, ptr %rest.addr, align 8
  %18 = load ptr, ptr %tok.addr, align 8
  %call14 = call zeroext i1 @consume_end(ptr noundef %17, ptr noundef %18)
  %lnot = xor i1 %call14, true
  br i1 %lnot, label %while.body, label %while.end

while.body:                                       ; preds = %while.cond
  %19 = load i32, ptr %i, align 4
  %inc = add nsw i32 %19, 1
  store i32 %inc, ptr %i, align 4
  %cmp15 = icmp sgt i32 %19, 0
  br i1 %cmp15, label %if.then16, label %if.end18

if.then16:                                        ; preds = %while.body
  %20 = load ptr, ptr %tok.addr, align 8
  %call17 = call ptr @skip(ptr noundef %20, ptr noundef @.str.57)
  store ptr %call17, ptr %tok.addr, align 8
  br label %if.end18

if.end18:                                         ; preds = %if.then16, %while.body
  %21 = load ptr, ptr %tok.addr, align 8
  %call19 = call ptr @get_ident(ptr noundef %21)
  store ptr %call19, ptr %name, align 8
  %22 = load ptr, ptr %tok.addr, align 8
  %next20 = getelementptr inbounds %struct.Token, ptr %22, i32 0, i32 1
  %23 = load ptr, ptr %next20, align 8
  store ptr %23, ptr %tok.addr, align 8
  %24 = load ptr, ptr %tok.addr, align 8
  %call21 = call zeroext i1 @equal(ptr noundef %24, ptr noundef @.str.76)
  br i1 %call21, label %if.then22, label %if.end25

if.then22:                                        ; preds = %if.end18
  %25 = load ptr, ptr %tok.addr, align 8
  %next23 = getelementptr inbounds %struct.Token, ptr %25, i32 0, i32 1
  %26 = load ptr, ptr %next23, align 8
  %call24 = call i64 @const_expr(ptr noundef %tok.addr, ptr noundef %26)
  %conv = trunc i64 %call24 to i32
  store i32 %conv, ptr %val, align 4
  br label %if.end25

if.end25:                                         ; preds = %if.then22, %if.end18
  %27 = load ptr, ptr %name, align 8
  %call26 = call ptr @push_scope(ptr noundef %27)
  store ptr %call26, ptr %sc, align 8
  %28 = load ptr, ptr %ty, align 8
  %29 = load ptr, ptr %sc, align 8
  %enum_ty = getelementptr inbounds %struct.VarScope, ptr %29, i32 0, i32 2
  store ptr %28, ptr %enum_ty, align 8
  %30 = load i32, ptr %val, align 4
  %inc27 = add nsw i32 %30, 1
  store i32 %inc27, ptr %val, align 4
  %31 = load ptr, ptr %sc, align 8
  %enum_val = getelementptr inbounds %struct.VarScope, ptr %31, i32 0, i32 3
  store i32 %30, ptr %enum_val, align 8
  br label %while.cond, !llvm.loop !55

while.end:                                        ; preds = %while.cond
  %32 = load ptr, ptr %tag, align 8
  %tobool28 = icmp ne ptr %32, null
  br i1 %tobool28, label %if.then29, label %if.end30

if.then29:                                        ; preds = %while.end
  %33 = load ptr, ptr %tag, align 8
  %34 = load ptr, ptr %ty, align 8
  call void @push_tag_scope(ptr noundef %33, ptr noundef %34)
  br label %if.end30

if.end30:                                         ; preds = %if.then29, %while.end
  %35 = load ptr, ptr %ty, align 8
  store ptr %35, ptr %retval, align 8
  br label %return

return:                                           ; preds = %if.end30, %if.end11
  %36 = load ptr, ptr %retval, align 8
  ret ptr %36
}