; Function Attrs: nounwind uwtable
define internal fastcc ptr @enum_specifier(ptr nocapture noundef writeonly %rest, ptr noundef %tok) unnamed_addr #0 {
entry:
  %tok.addr = alloca ptr, align 8
  %call = tail call ptr @enum_type() #13
  %0 = load i32, ptr %tok, align 16
  %cmp.not = icmp eq i32 %0, 0
  br i1 %cmp.not, label %land.lhs.true, label %if.end12

land.lhs.true:                                    ; preds = %entry
  %next = getelementptr inbounds %struct.Token, ptr %tok, i64 0, i32 1
  %1 = load ptr, ptr %next, align 8
  %call1 = tail call zeroext i1 @equal(ptr noundef %1, ptr noundef nonnull @.str.25) #13
  br i1 %call1, label %if.end12, label %if.then2

if.then2:                                         ; preds = %land.lhs.true
  %loc.i = getelementptr inbounds %struct.Token, ptr %tok, i64 0, i32 4
  %len.i = getelementptr inbounds %struct.Token, ptr %tok, i64 0, i32 5
  br label %for.cond.i

for.cond.i:                                       ; preds = %for.body.i, %if.then2
  %sc.0.in.i = phi ptr [ @scope, %if.then2 ], [ %sc.0.i, %for.body.i ]
  %sc.0.i = load ptr, ptr %sc.0.in.i, align 8
  %tobool.not.i = icmp eq ptr %sc.0.i, null
  br i1 %tobool.not.i, label %if.then6, label %for.body.i

for.body.i:                                       ; preds = %for.cond.i
  %tags.i = getelementptr inbounds %struct.Scope, ptr %sc.0.i, i64 0, i32 2
  %2 = load ptr, ptr %loc.i, align 16
  %3 = load i32, ptr %len.i, align 8
  %call.i = tail call ptr @hashmap_get2(ptr noundef nonnull %tags.i, ptr noundef %2, i32 noundef %3) #13
  %tobool1.not.i = icmp eq ptr %call.i, null
  br i1 %tobool1.not.i, label %for.cond.i, label %if.end7, !llvm.loop !58

if.then6:                                         ; preds = %for.cond.i
  tail call void (ptr, ptr, ...) @error_tok(ptr noundef nonnull %tok, ptr noundef nonnull @.str.139) #16
  unreachable

if.end7:                                          ; preds = %for.body.i
  %4 = load i32, ptr %call.i, align 8
  %cmp9.not = icmp eq i32 %4, 9
  br i1 %cmp9.not, label %if.end11, label %if.then10

if.then10:                                        ; preds = %if.end7
  tail call void (ptr, ptr, ...) @error_tok(ptr noundef nonnull %tok, ptr noundef nonnull @.str.140) #16
  unreachable

if.end11:                                         ; preds = %if.end7
  store ptr %1, ptr %rest, align 8
  br label %return

if.end12:                                         ; preds = %entry, %land.lhs.true
  %5 = phi ptr [ %1, %land.lhs.true ], [ %tok, %entry ]
  %tag.024 = phi ptr [ %tok, %land.lhs.true ], [ null, %entry ]
  %call13 = tail call ptr @skip(ptr noundef %5, ptr noundef nonnull @.str.25) #13
  store ptr %call13, ptr %tok.addr, align 8
  %call.i1333 = tail call zeroext i1 @equal(ptr noundef %call13, ptr noundef nonnull @.str.69) #13
  br i1 %call.i1333, label %while.end, label %if.end.i

if.end.i:                                         ; preds = %if.end12, %if.end25
  %6 = phi ptr [ %17, %if.end25 ], [ %call13, %if.end12 ]
  %val.035 = phi i32 [ %inc27, %if.end25 ], [ 0, %if.end12 ]
  %i.034 = phi i32 [ %inc, %if.end25 ], [ 0, %if.end12 ]
  %call1.i = call zeroext i1 @equal(ptr noundef %6, ptr noundef nonnull @.str.57) #13
  br i1 %call1.i, label %land.lhs.true.i, label %while.body

land.lhs.true.i:                                  ; preds = %if.end.i
  %next2.i = getelementptr inbounds %struct.Token, ptr %6, i64 0, i32 1
  %7 = load ptr, ptr %next2.i, align 8
  %call3.i = call zeroext i1 @equal(ptr noundef %7, ptr noundef nonnull @.str.69) #13
  br i1 %call3.i, label %if.then4.i, label %while.body

if.then4.i:                                       ; preds = %land.lhs.true.i
  %next2.i.le = getelementptr inbounds %struct.Token, ptr %6, i64 0, i32 1
  %8 = load ptr, ptr %next2.i.le, align 8
  br label %while.end

while.body:                                       ; preds = %land.lhs.true.i, %if.end.i
  %inc = add nuw nsw i32 %i.034, 1
  %cmp15.not = icmp eq i32 %i.034, 0
  %.pre = load ptr, ptr %tok.addr, align 8
  br i1 %cmp15.not, label %if.end18, label %if.then16

if.then16:                                        ; preds = %while.body
  %call17 = call ptr @skip(ptr noundef %.pre, ptr noundef nonnull @.str.57) #13
  store ptr %call17, ptr %tok.addr, align 8
  br label %if.end18

if.end18:                                         ; preds = %if.then16, %while.body
  %9 = phi ptr [ %call17, %if.then16 ], [ %.pre, %while.body ]
  %10 = load i32, ptr %9, align 16
  %cmp.not.i = icmp eq i32 %10, 0
  br i1 %cmp.not.i, label %get_ident.exit, label %if.then.i

if.then.i:                                        ; preds = %if.end18
  call void (ptr, ptr, ...) @error_tok(ptr noundef nonnull %9, ptr noundef nonnull @.str.66) #16
  unreachable

get_ident.exit:                                   ; preds = %if.end18
  %loc.i16 = getelementptr inbounds %struct.Token, ptr %9, i64 0, i32 4
  %11 = load ptr, ptr %loc.i16, align 16
  %len.i17 = getelementptr inbounds %struct.Token, ptr %9, i64 0, i32 5
  %12 = load i32, ptr %len.i17, align 8
  %conv.i = sext i32 %12 to i64
  %call.i18 = call noalias ptr @strndup(ptr noundef %11, i64 noundef %conv.i) #13
  %next20 = getelementptr inbounds %struct.Token, ptr %9, i64 0, i32 1
  %13 = load ptr, ptr %next20, align 8
  store ptr %13, ptr %tok.addr, align 8
  %call21 = call zeroext i1 @equal(ptr noundef %13, ptr noundef nonnull @.str.76) #13
  br i1 %call21, label %if.then22, label %if.end25

if.then22:                                        ; preds = %get_ident.exit
  %14 = load ptr, ptr %tok.addr, align 8
  %next23 = getelementptr inbounds %struct.Token, ptr %14, i64 0, i32 1
  %15 = load ptr, ptr %next23, align 8
  %call.i19 = call fastcc ptr @conditional(ptr noundef nonnull %tok.addr, ptr noundef %15)
  %call.i.i = call fastcc i64 @eval2(ptr noundef %call.i19, ptr noundef null)
  %conv = trunc i64 %call.i.i to i32
  br label %if.end25

if.end25:                                         ; preds = %if.then22, %get_ident.exit
  %val.1 = phi i32 [ %conv, %if.then22 ], [ %val.035, %get_ident.exit ]
  %call.i20 = call noalias dereferenceable_or_null(32) ptr @calloc(i64 noundef 1, i64 noundef 32) #14
  %16 = load ptr, ptr @scope, align 8
  %vars.i = getelementptr inbounds %struct.Scope, ptr %16, i64 0, i32 1
  call void @hashmap_put(ptr noundef nonnull %vars.i, ptr noundef %call.i18, ptr noundef %call.i20) #13
  %enum_ty = getelementptr inbounds %struct.VarScope, ptr %call.i20, i64 0, i32 2
  store ptr %call, ptr %enum_ty, align 8
  %inc27 = add nsw i32 %val.1, 1
  %enum_val = getelementptr inbounds %struct.VarScope, ptr %call.i20, i64 0, i32 3
  store i32 %val.1, ptr %enum_val, align 8
  %17 = load ptr, ptr %tok.addr, align 8
  %call.i13 = call zeroext i1 @equal(ptr noundef %17, ptr noundef nonnull @.str.69) #13
  br i1 %call.i13, label %while.end, label %if.end.i, !llvm.loop !59

while.end:                                        ; preds = %if.end25, %if.end12, %if.then4.i
  %.sink.i = phi ptr [ %8, %if.then4.i ], [ %call13, %if.end12 ], [ %17, %if.end25 ]
  %next6.i = getelementptr inbounds %struct.Token, ptr %.sink.i, i64 0, i32 1
  %18 = load ptr, ptr %next6.i, align 8
  store ptr %18, ptr %rest, align 8
  br i1 %cmp.not, label %if.then29, label %return

if.then29:                                        ; preds = %while.end
  %19 = getelementptr i8, ptr %tag.024, i64 48
  %tag.0.val = load ptr, ptr %19, align 16
  %20 = getelementptr i8, ptr %tag.024, i64 56
  %tag.0.val12 = load i32, ptr %20, align 8
  %21 = load ptr, ptr @scope, align 8
  %tags.i21 = getelementptr inbounds %struct.Scope, ptr %21, i64 0, i32 2
  call void @hashmap_put2(ptr noundef nonnull %tags.i21, ptr noundef %tag.0.val, i32 noundef %tag.0.val12, ptr noundef %call) #13
  br label %return

return:                                           ; preds = %while.end, %if.then29, %if.end11
  %retval.0 = phi ptr [ %call.i, %if.end11 ], [ %call, %if.then29 ], [ %call, %while.end ]
  ret ptr %retval.0
}